target datalayout = "e-m:e-p270:32:32-p271:32:32-p272:64:64-i64:64-i128:128-f80:128-n8:16:32:64-S128"
target triple = "x86_64-pc-linux-gnu"

%struct.PaStreamCallbackTimeInfo = type { double, double, double }

; Function Attrs: nounwind uwtable
define i32 @PaPulseAudio_updateTimeInfo(ptr noundef %0, ptr noundef %1, i32 noundef %2) #0 {
  %4 = alloca i32, align 4
  %5 = alloca ptr, align 8
  %6 = alloca ptr, align 8
  %7 = alloca i32, align 4
  %8 = alloca i32, align 4
  %9 = alloca i64, align 8
  %10 = alloca i64, align 8
  %11 = alloca i32, align 4
  store ptr %0, ptr %5, align 8, !tbaa !3
  store ptr %1, ptr %6, align 8, !tbaa !8
  store i32 %2, ptr %7, align 4, !tbaa !10
  call void @llvm.lifetime.start.p0(i64 4, ptr %8) #6
  store i32 0, ptr %8, align 4, !tbaa !10
  call void @llvm.lifetime.start.p0(i64 8, ptr %9) #6
  store i64 0, ptr %9, align 8, !tbaa !12
  call void @llvm.lifetime.start.p0(i64 8, ptr %10) #6
  store i64 0, ptr %10, align 8, !tbaa !12
  %12 = load ptr, ptr %5, align 8, !tbaa !3
  %13 = call i32 @pa_stream_get_time(ptr noundef %12, ptr noundef %9)
  %14 = icmp eq i32 %13, -16
  br i1 %14, label %15, label %16

15:                                               ; preds = %3
  store i32 -16, ptr %4, align 4
  store i32 1, ptr %11, align 4
  br label %52

16:                                               ; preds = %3
  %17 = load i64, ptr %9, align 8, !tbaa !12
  %18 = uitofp i64 %17 to double
  %19 = fdiv double %18, 1.000000e+06
  %20 = load ptr, ptr %6, align 8, !tbaa !8
  %21 = getelementptr inbounds nuw %struct.PaStreamCallbackTimeInfo, ptr %20, i32 0, i32 1
  store double %19, ptr %21, align 8, !tbaa !14
  br label %22

22:                                               ; preds = %16
  %23 = load ptr, ptr %5, align 8, !tbaa !3
  %24 = call i32 @pa_stream_get_latency(ptr noundef %23, ptr noundef %10, ptr noundef %8)
  %25 = icmp eq i32 %24, -16
  br i1 %25, label %26, label %27

26:                                               ; preds = %22
  store i32 -16, ptr %4, align 4
  store i32 1, ptr %11, align 4
  br label %52

27:                                               ; preds = %22
  %28 = load i32, ptr %7, align 4, !tbaa !10
  %29 = icmp eq i32 %28, 0
  br i1 %29, label %30, label %40

30:                                               ; preds = %27
  %31 = load ptr, ptr %6, align 8, !tbaa !8
  %32 = getelementptr inbounds nuw %struct.PaStreamCallbackTimeInfo, ptr %31, i32 0, i32 1
  %33 = load double, ptr %32, align 8, !tbaa !14
  %34 = load i64, ptr %10, align 8, !tbaa !12
  %35 = uitofp i64 %34 to double
  %36 = fdiv double %35, 1.000000e+06
  %37 = fadd double %33, %36
  %38 = load ptr, ptr %6, align 8, !tbaa !8
  %39 = getelementptr inbounds nuw %struct.PaStreamCallbackTimeInfo, ptr %38, i32 0, i32 2
  store double %37, ptr %39, align 8, !tbaa !17
  br label %50

40:                                               ; preds = %27
  %41 = load ptr, ptr %6, align 8, !tbaa !8
  %42 = getelementptr inbounds nuw %struct.PaStreamCallbackTimeInfo, ptr %41, i32 0, i32 1
  %43 = load double, ptr %42, align 8, !tbaa !14
  %44 = load i64, ptr %10, align 8, !tbaa !12
  %45 = uitofp i64 %44 to double
  %46 = fdiv double %45, 1.000000e+06
  %47 = fsub double %43, %46
  %48 = load ptr, ptr %6, align 8, !tbaa !8
  %49 = getelementptr inbounds nuw %struct.PaStreamCallbackTimeInfo, ptr %48, i32 0, i32 0
  store double %47, ptr %49, align 8, !tbaa !18
  br label %50

50:                                               ; preds = %40, %30
  br label %51

51:                                               ; preds = %50
  store i32 0, ptr %4, align 4
  store i32 1, ptr %11, align 4
  br label %52

52:                                               ; preds = %51, %26, %15
  call void @llvm.lifetime.end.p0(i64 8, ptr %10) #6
  call void @llvm.lifetime.end.p0(i64 8, ptr %9) #6
  call void @llvm.lifetime.end.p0(i64 4, ptr %8) #6
  %53 = load i32, ptr %4, align 4
  ret i32 %53
}