; Function Attrs: nounwind uwtable
define range(i32 -16, 1) i32 @PaPulseAudio_updateTimeInfo(ptr noundef %0, ptr noundef captures(none) %1, i32 noundef %2) local_unnamed_addr #0 {
  %4 = alloca i32, align 4
  %5 = alloca i64, align 8
  %6 = alloca i64, align 8
  call void @llvm.lifetime.start.p0(i64 4, ptr nonnull %4) #5
  store i32 0, ptr %4, align 4, !tbaa !3
  call void @llvm.lifetime.start.p0(i64 8, ptr nonnull %5) #5
  store i64 0, ptr %5, align 8, !tbaa !7
  call void @llvm.lifetime.start.p0(i64 8, ptr nonnull %6) #5
  store i64 0, ptr %6, align 8, !tbaa !7
  %7 = call i32 @pa_stream_get_time(ptr noundef %0, ptr noundef nonnull %5) #5
  %8 = icmp eq i32 %7, -16
  br i1 %8, label %27, label %9

9:                                                ; preds = %3
  %10 = load i64, ptr %5, align 8, !tbaa !7
  %11 = uitofp i64 %10 to double
  %12 = fdiv double %11, 1.000000e+06
  %13 = getelementptr inbounds nuw i8, ptr %1, i64 8
  store double %12, ptr %13, align 8, !tbaa !9
  %14 = call i32 @pa_stream_get_latency(ptr noundef %0, ptr noundef nonnull %6, ptr noundef nonnull %4) #5
  %15 = icmp eq i32 %14, -16
  br i1 %15, label %27, label %16

16:                                               ; preds = %9
  %17 = icmp eq i32 %2, 0
  %18 = load double, ptr %13, align 8, !tbaa !9
  %19 = load i64, ptr %6, align 8, !tbaa !7
  %20 = uitofp i64 %19 to double
  %21 = fdiv double %20, 1.000000e+06
  br i1 %17, label %22, label %25

22:                                               ; preds = %16
  %23 = fadd double %18, %21
  %24 = getelementptr inbounds nuw i8, ptr %1, i64 16
  store double %23, ptr %24, align 8, !tbaa !12
  br label %27

25:                                               ; preds = %16
  %26 = fsub double %18, %21
  store double %26, ptr %1, align 8, !tbaa !13
  br label %27

27:                                               ; preds = %25, %22, %9, %3
  %.0 = phi i32 [ -16, %3 ], [ -16, %9 ], [ 0, %22 ], [ 0, %25 ]
  call void @llvm.lifetime.end.p0(i64 8, ptr nonnull %6) #5
  call void @llvm.lifetime.end.p0(i64 8, ptr nonnull %5) #5
  call void @llvm.lifetime.end.p0(i64 4, ptr nonnull %4) #5
  ret i32 %.0
}